target datalayout = "e-m:e-p270:32:32-p271:32:32-p272:64:64-i64:64-i128:128-f80:128-n8:16:32:64-S128"
target triple = "x86_64-pc-linux-gnu"

%struct._fvalue_t = type { ptr, %union.anon.1 }
%union.anon.1 = type { %struct._protocol_value_t }
%struct._protocol_value_t = type { ptr, i32, ptr, i8 }

@.str.1 = private unnamed_addr constant [34 x i8] c"%lu is too large for a byte value\00", align 1
@.str.18 = private unnamed_addr constant [33 x i8] c"%s is too large for a byte value\00", align 1

; Function Attrs: null_pointer_is_valid sspstrong uwtable
define internal void @bytes_fvalue_free(ptr noundef %0) #0 {
  %2 = alloca ptr, align 8
  store ptr %0, ptr %2, align 8
  %3 = load ptr, ptr %2, align 8
  %4 = getelementptr inbounds nuw %struct._fvalue_t, ptr %3, i32 0, i32 1
  %5 = load ptr, ptr %4, align 8
  %6 = icmp ne ptr %5, null
  br i1 %6, label %7, label %13

7:                                                ; preds = %1
  %8 = load ptr, ptr %2, align 8
  %9 = getelementptr inbounds nuw %struct._fvalue_t, ptr %8, i32 0, i32 1
  %10 = load ptr, ptr %9, align 8
  call void @g_bytes_unref(ptr noundef %10)
  %11 = load ptr, ptr %2, align 8
  %12 = getelementptr inbounds nuw %struct._fvalue_t, ptr %11, i32 0, i32 1
  store ptr null, ptr %12, align 8
  br label %13

13:                                               ; preds = %7, %1
  ret void
}

; Function Attrs: null_pointer_is_valid sspstrong uwtable
define hidden ptr @byte_array_from_charconst(i64 noundef %0, ptr noundef %1) #0 {
  %3 = alloca ptr, align 8
  %4 = alloca i64, align 8
  %5 = alloca ptr, align 8
  %6 = alloca ptr, align 8
  %7 = alloca i8, align 1
  store i64 %0, ptr %4, align 8
  store ptr %1, ptr %5, align 8
  %8 = load i64, ptr %4, align 8
  %9 = icmp ugt i64 %8, 255
  br i1 %9, label %10, label %18

10:                                               ; preds = %2
  %11 = load ptr, ptr %5, align 8
  %12 = icmp ne ptr %11, null
  br i1 %12, label %13, label %17

13:                                               ; preds = %10
  %14 = load i64, ptr %4, align 8
  %15 = call noalias ptr (ptr, ptr, ...) @wmem_strdup_printf(ptr noundef null, ptr noundef @.str.1, i64 noundef %14)
  %16 = load ptr, ptr %5, align 8
  store ptr %15, ptr %16, align 8
  br label %17

17:                                               ; preds = %13, %10
  store ptr null, ptr %3, align 8
  br label %25

18:                                               ; preds = %2
  call void @llvm.lifetime.start.p0(i64 8, ptr %6) #9
  %19 = call ptr @g_byte_array_new()
  store ptr %19, ptr %6, align 8
  call void @llvm.lifetime.start.p0(i64 1, ptr %7) #9
  %20 = load i64, ptr %4, align 8
  %21 = trunc i64 %20 to i8
  store i8 %21, ptr %7, align 1
  %22 = load ptr, ptr %6, align 8
  %23 = call ptr @g_byte_array_append(ptr noundef %22, ptr noundef %7, i32 noundef 1)
  %24 = load ptr, ptr %6, align 8
  store ptr %24, ptr %3, align 8
  call void @llvm.lifetime.end.p0(i64 1, ptr %7) #9
  call void @llvm.lifetime.end.p0(i64 8, ptr %6) #9
  br label %25

25:                                               ; preds = %18, %17
  %26 = load ptr, ptr %3, align 8
  ret ptr %26
}

; Function Attrs: null_pointer_is_valid sspstrong uwtable
define internal zeroext i1 @bytes_from_charconst(ptr noundef %0, i64 noundef %1, ptr noundef %2) #0 {
  %4 = alloca i1, align 1
  %5 = alloca ptr, align 8
  %6 = alloca i64, align 8
  %7 = alloca ptr, align 8
  %8 = alloca ptr, align 8
  %9 = alloca i32, align 4
  store ptr %0, ptr %5, align 8
  store i64 %1, ptr %6, align 8
  store ptr %2, ptr %7, align 8
  call void @llvm.lifetime.start.p0(i64 8, ptr %8) #9
  %10 = load i64, ptr %6, align 8
  %11 = load ptr, ptr %7, align 8
  %12 = call ptr @byte_array_from_charconst(i64 noundef %10, ptr noundef %11)
  store ptr %12, ptr %8, align 8
  %13 = load ptr, ptr %8, align 8
  %14 = icmp eq ptr %13, null
  br i1 %14, label %15, label %16

15:                                               ; preds = %3
  store i1 false, ptr %4, align 1
  store i32 1, ptr %9, align 4
  br label %22

16:                                               ; preds = %3
  %17 = load ptr, ptr %5, align 8
  call void @bytes_fvalue_free(ptr noundef %17)
  %18 = load ptr, ptr %8, align 8
  %19 = call ptr @g_byte_array_free_to_bytes(ptr noundef %18)
  %20 = load ptr, ptr %5, align 8
  %21 = getelementptr inbounds nuw %struct._fvalue_t, ptr %20, i32 0, i32 1
  store ptr %19, ptr %21, align 8
  store i1 true, ptr %4, align 1
  store i32 1, ptr %9, align 4
  br label %22

22:                                               ; preds = %16, %15
  call void @llvm.lifetime.end.p0(i64 8, ptr %8) #9
  %23 = load i1, ptr %4, align 1
  ret i1 %23
}

; Function Attrs: null_pointer_is_valid sspstrong uwtable
define internal zeroext i1 @bytes_from_uinteger64(ptr noundef %0, ptr noundef %1, i64 noundef %2, ptr noundef %3) #0 {
  %5 = alloca i1, align 1
  %6 = alloca ptr, align 8
  %7 = alloca ptr, align 8
  %8 = alloca i64, align 8
  %9 = alloca ptr, align 8
  store ptr %0, ptr %6, align 8
  store ptr %1, ptr %7, align 8
  store i64 %2, ptr %8, align 8
  store ptr %3, ptr %9, align 8
  %10 = load i64, ptr %8, align 8
  %11 = icmp ugt i64 %10, 255
  br i1 %11, label %12, label %20

12:                                               ; preds = %4
  %13 = load ptr, ptr %9, align 8
  %14 = icmp ne ptr %13, null
  br i1 %14, label %15, label %19

15:                                               ; preds = %12
  %16 = load ptr, ptr %7, align 8
  %17 = call noalias ptr (ptr, ptr, ...) @wmem_strdup_printf(ptr noundef null, ptr noundef @.str.18, ptr noundef %16)
  %18 = load ptr, ptr %9, align 8
  store ptr %17, ptr %18, align 8
  br label %19

19:                                               ; preds = %15, %12
  store i1 false, ptr %5, align 1
  br label %25

20:                                               ; preds = %4
  %21 = load ptr, ptr %6, align 8
  %22 = load i64, ptr %8, align 8
  %23 = load ptr, ptr %9, align 8
  %24 = call zeroext i1 @bytes_from_charconst(ptr noundef %21, i64 noundef %22, ptr noundef %23)
  store i1 %24, ptr %5, align 1
  br label %25

25:                                               ; preds = %20, %19
  %26 = load i1, ptr %5, align 1
  ret i1 %26
}