; Function Attrs: null_pointer_is_valid sspstrong uwtable
define internal noundef zeroext i1 @bytes_from_uinteger64(ptr noundef captures(none) %0, ptr noundef %1, i64 noundef %2, ptr noundef writeonly captures(address_is_null) %3) #0 {
  %5 = alloca i8, align 1
  %6 = icmp ugt i64 %2, 255
  br i1 %6, label %7, label %byte_array_from_charconst.exit.i

7:                                                ; preds = %4
  %.not = icmp eq ptr %3, null
  br i1 %.not, label %bytes_from_charconst.exit, label %8

8:                                                ; preds = %7
  %9 = tail call noalias ptr (ptr, ptr, ...) @wmem_strdup_printf(ptr noundef null, ptr noundef nonnull @.str.18, ptr noundef %1)
  store ptr %9, ptr %3, align 8
  br label %bytes_from_charconst.exit

byte_array_from_charconst.exit.i:                 ; preds = %4
  %10 = tail call ptr @g_byte_array_new()
  call void @llvm.lifetime.start.p0(i64 1, ptr nonnull %5) #12
  %11 = trunc nuw i64 %2 to i8
  store i8 %11, ptr %5, align 1
  %12 = call ptr @g_byte_array_append(ptr noundef %10, ptr noundef nonnull %5, i32 noundef 1)
  call void @llvm.lifetime.end.p0(i64 1, ptr nonnull %5) #12
  %.not.i = icmp eq ptr %10, null
  br i1 %.not.i, label %bytes_from_charconst.exit, label %13

13:                                               ; preds = %byte_array_from_charconst.exit.i
  %14 = getelementptr inbounds nuw i8, ptr %0, i64 8
  %15 = load ptr, ptr %14, align 8
  %.not.i7.i = icmp eq ptr %15, null
  br i1 %.not.i7.i, label %bytes_fvalue_free.exit.i, label %16

16:                                               ; preds = %13
  call void @g_bytes_unref(ptr noundef nonnull %15)
  store ptr null, ptr %14, align 8
  br label %bytes_fvalue_free.exit.i

bytes_fvalue_free.exit.i:                         ; preds = %16, %13
  %17 = call ptr @g_byte_array_free_to_bytes(ptr noundef nonnull %10)
  store ptr %17, ptr %14, align 8
  br label %bytes_from_charconst.exit

bytes_from_charconst.exit:                        ; preds = %bytes_fvalue_free.exit.i, %byte_array_from_charconst.exit.i, %7, %8
  %.0 = phi i1 [ false, %8 ], [ false, %7 ], [ false, %byte_array_from_charconst.exit.i ], [ true, %bytes_fvalue_free.exit.i ]
  ret i1 %.0
}